target datalayout = "e-m:e-p270:32:32-p271:32:32-p272:64:64-i64:64-i128:128-f80:128-n8:16:32:64-S128"
target triple = "x86_64-pc-linux-gnu"

%struct.nameData = type { [64 x i8] }
%struct.ReplicationSlot = type { i8, i8, i32, i8, i8, i32, i32, %struct.ReplicationSlotPersistentData, %struct.LWLock, %struct.ConditionVariable, i32, i64, i64, i64, i64, i64 }
%struct.ReplicationSlotPersistentData = type { %struct.nameData, i32, i32, i32, i32, i64, i32, i64, i64, i8, %struct.nameData, i8, i8 }
%struct.LWLock = type { i16, %struct.pg_atomic_uint32, %struct.proclist_head }
%struct.pg_atomic_uint32 = type { i32 }
%struct.proclist_head = type { i32, i32 }
%struct.ConditionVariable = type { i8, %struct.proclist_head }

@.str.1 = private unnamed_addr constant [10 x i8] c"logical.c\00", align 1
@MyReplicationSlot = external global ptr, align 8
@__func__.LogicalIncreaseRestartDecodingForSlot = private unnamed_addr constant [38 x i8] c"LogicalIncreaseRestartDecodingForSlot\00", align 1
@.str.23 = private unnamed_addr constant [35 x i8] c"got new restart lsn %X/%X at %X/%X\00", align 1
@.str.24 = private unnamed_addr constant [127 x i8] c"failed to increase restart lsn: proposed %X/%X, after %X/%X, current candidate %X/%X, current after %X/%X, flushed up to %X/%X\00", align 1

; Function Attrs: inlinehint nounwind uwtable
define internal i32 @tas(ptr noundef %0) #4 {
  %2 = alloca ptr, align 8
  %3 = alloca i8, align 1
  store ptr %0, ptr %2, align 8
  call void @llvm.lifetime.start.p0(i64 1, ptr %3) #10
  store i8 1, ptr %3, align 1
  %4 = load i8, ptr %3, align 1
  %5 = load ptr, ptr %2, align 8
  %6 = call i8 asm sideeffect "\09lock\09\09\09\0A\09xchgb\09$0,$1\09\0A", "=q,=*m,0,*m,~{memory},~{cc},~{dirflag},~{fpsr},~{flags}"(ptr elementtype(i8) %5, i8 %4, ptr elementtype(i8) %5) #10, !srcloc !9
  store i8 %6, ptr %3, align 1
  %7 = load i8, ptr %3, align 1
  %8 = zext i8 %7 to i32
  call void @llvm.lifetime.end.p0(i64 1, ptr %3) #10
  ret i32 %8
}

; Function Attrs: nounwind uwtable
define dso_local void @LogicalIncreaseRestartDecodingForSlot(i64 noundef %0, i64 noundef %1) #0 {
  %3 = alloca i64, align 8
  %4 = alloca i64, align 8
  %5 = alloca i8, align 1
  %6 = alloca ptr, align 8
  %7 = alloca i32, align 4
  %8 = alloca i32, align 4
  %9 = alloca i64, align 8
  %10 = alloca i64, align 8
  %11 = alloca i64, align 8
  %12 = alloca i32, align 4
  %13 = alloca i32, align 4
  %14 = alloca i32, align 4
  %15 = alloca i32, align 4
  %16 = alloca i32, align 4
  store i64 %0, ptr %3, align 8
  store i64 %1, ptr %4, align 8
  call void @llvm.lifetime.start.p0(i64 1, ptr %5) #10
  store i8 0, ptr %5, align 1
  call void @llvm.lifetime.start.p0(i64 8, ptr %6) #10
  %17 = load ptr, ptr @MyReplicationSlot, align 8
  store ptr %17, ptr %6, align 8
  %18 = load ptr, ptr %6, align 8
  %19 = getelementptr inbounds nuw %struct.ReplicationSlot, ptr %18, i32 0, i32 0
  %20 = call i32 @tas(ptr noundef %19)
  %21 = icmp ne i32 %20, 0
  br i1 %21, label %22, label %26

22:                                               ; preds = %2
  %23 = load ptr, ptr %6, align 8
  %24 = getelementptr inbounds nuw %struct.ReplicationSlot, ptr %23, i32 0, i32 0
  %25 = call i32 @s_lock(ptr noundef %24, ptr noundef @.str.1, i32 noundef 1753, ptr noundef @__func__.LogicalIncreaseRestartDecodingForSlot)
  br label %27

26:                                               ; preds = %2
  br label %27

27:                                               ; preds = %26, %22
  %28 = load i64, ptr %4, align 8
  %29 = load ptr, ptr %6, align 8
  %30 = getelementptr inbounds nuw %struct.ReplicationSlot, ptr %29, i32 0, i32 7
  %31 = getelementptr inbounds nuw %struct.ReplicationSlotPersistentData, ptr %30, i32 0, i32 5
  %32 = load i64, ptr %31, align 8
  %33 = icmp ule i64 %28, %32
  br i1 %33, label %34, label %40

34:                                               ; preds = %27
  br label %35

35:                                               ; preds = %34
  call void asm sideeffect "", "~{memory},~{dirflag},~{fpsr},~{flags}"() #10, !srcloc !16
  %36 = load ptr, ptr %6, align 8
  %37 = getelementptr inbounds nuw %struct.ReplicationSlot, ptr %36, i32 0, i32 0
  store i8 0, ptr %37, align 8
  br label %38

38:                                               ; preds = %35
  br label %39

39:                                               ; preds = %38
  br label %170

40:                                               ; preds = %27
  %41 = load i64, ptr %3, align 8
  %42 = load ptr, ptr %6, align 8
  %43 = getelementptr inbounds nuw %struct.ReplicationSlot, ptr %42, i32 0, i32 7
  %44 = getelementptr inbounds nuw %struct.ReplicationSlotPersistentData, ptr %43, i32 0, i32 7
  %45 = load i64, ptr %44, align 8
  %46 = icmp ule i64 %41, %45
  br i1 %46, label %47, label %59

47:                                               ; preds = %40
  %48 = load i64, ptr %3, align 8
  %49 = load ptr, ptr %6, align 8
  %50 = getelementptr inbounds nuw %struct.ReplicationSlot, ptr %49, i32 0, i32 12
  store i64 %48, ptr %50, align 8
  %51 = load i64, ptr %4, align 8
  %52 = load ptr, ptr %6, align 8
  %53 = getelementptr inbounds nuw %struct.ReplicationSlot, ptr %52, i32 0, i32 13
  store i64 %51, ptr %53, align 8
  br label %54

54:                                               ; preds = %47
  call void asm sideeffect "", "~{memory},~{dirflag},~{fpsr},~{flags}"() #10, !srcloc !17
  %55 = load ptr, ptr %6, align 8
  %56 = getelementptr inbounds nuw %struct.ReplicationSlot, ptr %55, i32 0, i32 0
  store i8 0, ptr %56, align 8
  br label %57

57:                                               ; preds = %54
  br label %58

58:                                               ; preds = %57
  store i8 1, ptr %5, align 1
  br label %169

59:                                               ; preds = %40
  %60 = load ptr, ptr %6, align 8
  %61 = getelementptr inbounds nuw %struct.ReplicationSlot, ptr %60, i32 0, i32 12
  %62 = load i64, ptr %61, align 8
  %63 = icmp eq i64 %62, 0
  br i1 %63, label %64, label %102

64:                                               ; preds = %59
  %65 = load i64, ptr %3, align 8
  %66 = load ptr, ptr %6, align 8
  %67 = getelementptr inbounds nuw %struct.ReplicationSlot, ptr %66, i32 0, i32 12
  store i64 %65, ptr %67, align 8
  %68 = load i64, ptr %4, align 8
  %69 = load ptr, ptr %6, align 8
  %70 = getelementptr inbounds nuw %struct.ReplicationSlot, ptr %69, i32 0, i32 13
  store i64 %68, ptr %70, align 8
  br label %71

71:                                               ; preds = %64
  call void asm sideeffect "", "~{memory},~{dirflag},~{fpsr},~{flags}"() #10, !srcloc !18
  %72 = load ptr, ptr %6, align 8
  %73 = getelementptr inbounds nuw %struct.ReplicationSlot, ptr %72, i32 0, i32 0
  store i8 0, ptr %73, align 8
  br label %74

74:                                               ; preds = %71
  br label %75

75:                                               ; preds = %74
  br label %76

76:                                               ; preds = %75
  br i1 false, label %77, label %79

77:                                               ; preds = %76
  %78 = call zeroext i1 @errstart_cold(i32 noundef 14, ptr noundef null) #9
  br i1 %78, label %81, label %99

79:                                               ; preds = %76
  %80 = call zeroext i1 @errstart(i32 noundef 14, ptr noundef null)
  br i1 %80, label %81, label %99

81:                                               ; preds = %79, %77
  br label %82

82:                                               ; preds = %81
  br label %83

83:                                               ; preds = %82
  br label %84

84:                                               ; preds = %83
  store i32 1, ptr %7, align 4
  %85 = load i64, ptr %4, align 8
  %86 = lshr i64 %85, 32
  %87 = trunc i64 %86 to i32
  %88 = load i64, ptr %4, align 8
  %89 = trunc i64 %88 to i32
  br label %90

90:                                               ; preds = %84
  br label %91

91:                                               ; preds = %90
  br label %92

92:                                               ; preds = %91
  store i32 1, ptr %8, align 4
  %93 = load i64, ptr %3, align 8
  %94 = lshr i64 %93, 32
  %95 = trunc i64 %94 to i32
  %96 = load i64, ptr %3, align 8
  %97 = trunc i64 %96 to i32
  %98 = call i32 (ptr, ...) @errmsg_internal(ptr noundef @.str.23, i32 noundef %87, i32 noundef %89, i32 noundef %95, i32 noundef %97)
  call void @errfinish(ptr noundef @.str.1, i32 noundef 1788, ptr noundef @__func__.LogicalIncreaseRestartDecodingForSlot)
  br label %99

99:                                               ; preds = %92, %79, %77
  br label %100

100:                                              ; preds = %99
  br label %101

101:                                              ; preds = %100
  br label %168

102:                                              ; preds = %59
  call void @llvm.lifetime.start.p0(i64 8, ptr %9) #10
  call void @llvm.lifetime.start.p0(i64 8, ptr %10) #10
  call void @llvm.lifetime.start.p0(i64 8, ptr %11) #10
  %103 = load ptr, ptr %6, align 8
  %104 = getelementptr inbounds nuw %struct.ReplicationSlot, ptr %103, i32 0, i32 13
  %105 = load i64, ptr %104, align 8
  store i64 %105, ptr %9, align 8
  %106 = load ptr, ptr %6, align 8
  %107 = getelementptr inbounds nuw %struct.ReplicationSlot, ptr %106, i32 0, i32 12
  %108 = load i64, ptr %107, align 8
  store i64 %108, ptr %10, align 8
  %109 = load ptr, ptr %6, align 8
  %110 = getelementptr inbounds nuw %struct.ReplicationSlot, ptr %109, i32 0, i32 7
  %111 = getelementptr inbounds nuw %struct.ReplicationSlotPersistentData, ptr %110, i32 0, i32 7
  %112 = load i64, ptr %111, align 8
  store i64 %112, ptr %11, align 8
  br label %113

113:                                              ; preds = %102
  call void asm sideeffect "", "~{memory},~{dirflag},~{fpsr},~{flags}"() #10, !srcloc !19
  %114 = load ptr, ptr %6, align 8
  %115 = getelementptr inbounds nuw %struct.ReplicationSlot, ptr %114, i32 0, i32 0
  store i8 0, ptr %115, align 8
  br label %116

116:                                              ; preds = %113
  br label %117

117:                                              ; preds = %116
  br label %118

118:                                              ; preds = %117
  br i1 false, label %119, label %121

119:                                              ; preds = %118
  %120 = call zeroext i1 @errstart_cold(i32 noundef 14, ptr noundef null) #9
  br i1 %120, label %123, label %165

121:                                              ; preds = %118
  %122 = call zeroext i1 @errstart(i32 noundef 14, ptr noundef null)
  br i1 %122, label %123, label %165

123:                                              ; preds = %121, %119
  br label %124

124:                                              ; preds = %123
  br label %125

125:                                              ; preds = %124
  br label %126

126:                                              ; preds = %125
  store i32 1, ptr %12, align 4
  %127 = load i64, ptr %4, align 8
  %128 = lshr i64 %127, 32
  %129 = trunc i64 %128 to i32
  %130 = load i64, ptr %4, align 8
  %131 = trunc i64 %130 to i32
  br label %132

132:                                              ; preds = %126
  br label %133

133:                                              ; preds = %132
  br label %134

134:                                              ; preds = %133
  store i32 1, ptr %13, align 4
  %135 = load i64, ptr %3, align 8
  %136 = lshr i64 %135, 32
  %137 = trunc i64 %136 to i32
  %138 = load i64, ptr %3, align 8
  %139 = trunc i64 %138 to i32
  br label %140

140:                                              ; preds = %134
  br label %141

141:                                              ; preds = %140
  br label %142

142:                                              ; preds = %141
  store i32 1, ptr %14, align 4
  %143 = load i64, ptr %9, align 8
  %144 = lshr i64 %143, 32
  %145 = trunc i64 %144 to i32
  %146 = load i64, ptr %9, align 8
  %147 = trunc i64 %146 to i32
  br label %148

148:                                              ; preds = %142
  br label %149

149:                                              ; preds = %148
  br label %150

150:                                              ; preds = %149
  store i32 1, ptr %15, align 4
  %151 = load i64, ptr %10, align 8
  %152 = lshr i64 %151, 32
  %153 = trunc i64 %152 to i32
  %154 = load i64, ptr %10, align 8
  %155 = trunc i64 %154 to i32
  br label %156

156:                                              ; preds = %150
  br label %157

157:                                              ; preds = %156
  br label %158

158:                                              ; preds = %157
  store i32 1, ptr %16, align 4
  %159 = load i64, ptr %11, align 8
  %160 = lshr i64 %159, 32
  %161 = trunc i64 %160 to i32
  %162 = load i64, ptr %11, align 8
  %163 = trunc i64 %162 to i32
  %164 = call i32 (ptr, ...) @errmsg_internal(ptr noundef @.str.24, i32 noundef %129, i32 noundef %131, i32 noundef %137, i32 noundef %139, i32 noundef %145, i32 noundef %147, i32 noundef %153, i32 noundef %155, i32 noundef %161, i32 noundef %163)
  call void @errfinish(ptr noundef @.str.1, i32 noundef 1806, ptr noundef @__func__.LogicalIncreaseRestartDecodingForSlot)
  br label %165

165:                                              ; preds = %158, %121, %119
  br label %166

166:                                              ; preds = %165
  br label %167

167:                                              ; preds = %166
  call void @llvm.lifetime.end.p0(i64 8, ptr %11) #10
  call void @llvm.lifetime.end.p0(i64 8, ptr %10) #10
  call void @llvm.lifetime.end.p0(i64 8, ptr %9) #10
  br label %168

168:                                              ; preds = %167, %101
  br label %169

169:                                              ; preds = %168, %58
  br label %170

170:                                              ; preds = %169, %39
  %171 = load i8, ptr %5, align 1, !range !6, !noundef !7
  %172 = trunc i8 %171 to i1
  br i1 %172, label %173, label %178

173:                                              ; preds = %170
  %174 = load ptr, ptr %6, align 8
  %175 = getelementptr inbounds nuw %struct.ReplicationSlot, ptr %174, i32 0, i32 7
  %176 = getelementptr inbounds nuw %struct.ReplicationSlotPersistentData, ptr %175, i32 0, i32 7
  %177 = load i64, ptr %176, align 8
  call void @LogicalConfirmReceivedLocation(i64 noundef %177)
  br label %178

178:                                              ; preds = %173, %170
  call void @llvm.lifetime.end.p0(i64 8, ptr %6) #10
  call void @llvm.lifetime.end.p0(i64 1, ptr %5) #10
  ret void
}