; Function Attrs: nounwind uwtable
define dso_local void @LogicalIncreaseRestartDecodingForSlot(i64 noundef %0, i64 noundef %1) local_unnamed_addr #0 {
  %3 = load ptr, ptr @MyReplicationSlot, align 8
  %4 = tail call i8 asm sideeffect "\09lock\09\09\09\0A\09xchgb\09$0,$1\09\0A", "=q,=*m,0,*m,~{memory},~{cc},~{dirflag},~{fpsr},~{flags}"(ptr elementtype(i8) %3, i8 1, ptr elementtype(i8) %3) #10, !srcloc !4
  %.not = icmp eq i8 %4, 0
  br i1 %.not, label %7, label %5

5:                                                ; preds = %2
  %6 = tail call i32 @s_lock(ptr noundef %3, ptr noundef nonnull @.str.1, i32 noundef 1753, ptr noundef nonnull @__func__.LogicalIncreaseRestartDecodingForSlot) #10
  br label %7

7:                                                ; preds = %2, %5
  %8 = getelementptr inbounds nuw i8, ptr %3, i64 104
  %9 = load i64, ptr %8, align 8
  %.not41 = icmp ugt i64 %1, %9
  br i1 %.not41, label %11, label %10

10:                                               ; preds = %7
  tail call void asm sideeffect "", "~{memory},~{dirflag},~{fpsr},~{flags}"() #10, !srcloc !17
  store i8 0, ptr %3, align 8
  br label %.critedge

11:                                               ; preds = %7
  %12 = getelementptr inbounds nuw i8, ptr %3, i64 120
  %13 = load i64, ptr %12, align 8
  %.not42 = icmp ugt i64 %0, %13
  %14 = getelementptr inbounds nuw i8, ptr %3, i64 248
  br i1 %.not42, label %18, label %15

15:                                               ; preds = %11
  store i64 %0, ptr %14, align 8
  %16 = getelementptr inbounds nuw i8, ptr %3, i64 256
  store i64 %1, ptr %16, align 8
  tail call void asm sideeffect "", "~{memory},~{dirflag},~{fpsr},~{flags}"() #10, !srcloc !18
  store i8 0, ptr %3, align 8
  %17 = load i64, ptr %12, align 8
  tail call void @LogicalConfirmReceivedLocation(i64 noundef %17)
  br label %.critedge

18:                                               ; preds = %11
  %19 = load i64, ptr %14, align 8
  %20 = icmp eq i64 %19, 0
  br i1 %20, label %21, label %32

21:                                               ; preds = %18
  store i64 %0, ptr %14, align 8
  %22 = getelementptr inbounds nuw i8, ptr %3, i64 256
  store i64 %1, ptr %22, align 8
  tail call void asm sideeffect "", "~{memory},~{dirflag},~{fpsr},~{flags}"() #10, !srcloc !19
  store i8 0, ptr %3, align 8
  %23 = tail call zeroext i1 @errstart(i32 noundef 14, ptr noundef null) #10
  br i1 %23, label %24, label %.critedge

24:                                               ; preds = %21
  %25 = lshr i64 %1, 32
  %26 = trunc nuw i64 %25 to i32
  %27 = trunc i64 %1 to i32
  %28 = lshr i64 %0, 32
  %29 = trunc nuw i64 %28 to i32
  %30 = trunc i64 %0 to i32
  %31 = tail call i32 (ptr, ...) @errmsg_internal(ptr noundef nonnull @.str.23, i32 noundef %26, i32 noundef %27, i32 noundef %29, i32 noundef %30) #10
  tail call void @errfinish(ptr noundef nonnull @.str.1, i32 noundef 1788, ptr noundef nonnull @__func__.LogicalIncreaseRestartDecodingForSlot) #10
  br label %.critedge

32:                                               ; preds = %18
  %33 = getelementptr inbounds nuw i8, ptr %3, i64 256
  %34 = load i64, ptr %33, align 8
  tail call void asm sideeffect "", "~{memory},~{dirflag},~{fpsr},~{flags}"() #10, !srcloc !20
  store i8 0, ptr %3, align 8
  %35 = tail call zeroext i1 @errstart(i32 noundef 14, ptr noundef null) #10
  br i1 %35, label %36, label %.critedge

36:                                               ; preds = %32
  %37 = lshr i64 %1, 32
  %38 = trunc nuw i64 %37 to i32
  %39 = trunc i64 %1 to i32
  %40 = lshr i64 %0, 32
  %41 = trunc nuw i64 %40 to i32
  %42 = trunc i64 %0 to i32
  %43 = lshr i64 %34, 32
  %44 = trunc nuw i64 %43 to i32
  %45 = trunc i64 %34 to i32
  %46 = lshr i64 %19, 32
  %47 = trunc nuw i64 %46 to i32
  %48 = trunc i64 %19 to i32
  %49 = lshr i64 %13, 32
  %50 = trunc nuw i64 %49 to i32
  %51 = trunc i64 %13 to i32
  %52 = tail call i32 (ptr, ...) @errmsg_internal(ptr noundef nonnull @.str.24, i32 noundef %38, i32 noundef %39, i32 noundef %41, i32 noundef %42, i32 noundef %44, i32 noundef %45, i32 noundef %47, i32 noundef %48, i32 noundef %50, i32 noundef %51) #10
  tail call void @errfinish(ptr noundef nonnull @.str.1, i32 noundef 1806, ptr noundef nonnull @__func__.LogicalIncreaseRestartDecodingForSlot) #10
  br label %.critedge

.critedge:                                        ; preds = %10, %24, %21, %36, %32, %15
  ret void
}